; ModuleID = 'source-C-CXX/4/592.c'
source_filename = "source-C-CXX/4/592.c"
target datalayout = "e-m:e-p270:32:32-p271:32:32-p272:64:64-i64:64-f80:128-n8:16:32:64-S128"
target triple = "x86_64-pc-linux-gnu"

@.str = private unnamed_addr constant [4 x i8] c"%lf\00", align 1
@.str.1 = private unnamed_addr constant [3 x i8] c"%s\00", align 1
@.str.2 = private unnamed_addr constant [6 x i8] c"error\00", align 1
@.str.3 = private unnamed_addr constant [4 x i8] c"yes\00", align 1
@.str.4 = private unnamed_addr constant [3 x i8] c"no\00", align 1

; Function Attrs: nofree nounwind sspstrong uwtable
define dso_local i32 @main() local_unnamed_addr #0 {
  %1 = alloca double, align 8
  %2 = alloca [10086 x i8], align 16
  %3 = alloca [10086 x i8], align 16
  %4 = bitcast double* %1 to i8*
  call void @llvm.lifetime.start.p0i8(i64 8, i8* nonnull %4) #4
  %5 = getelementptr inbounds [10086 x i8], [10086 x i8]* %2, i64 0, i64 0
  call void @llvm.lifetime.start.p0i8(i64 10086, i8* nonnull %5) #4
  %6 = getelementptr inbounds [10086 x i8], [10086 x i8]* %3, i64 0, i64 0
  call void @llvm.lifetime.start.p0i8(i64 10086, i8* nonnull %6) #4
  %7 = call i32 (i8*, ...) @__isoc99_scanf(i8* getelementptr inbounds ([4 x i8], [4 x i8]* @.str, i64 0, i64 0), double* nonnull %1)
  %8 = call i32 (i8*, ...) @__isoc99_scanf(i8* getelementptr inbounds ([3 x i8], [3 x i8]* @.str.1, i64 0, i64 0), i8* nonnull %5)
  %9 = call i32 (i8*, ...) @__isoc99_scanf(i8* getelementptr inbounds ([3 x i8], [3 x i8]* @.str.1, i64 0, i64 0), i8* nonnull %6)
  %10 = call i64 @strlen(i8* noundef nonnull %5) #5
  %11 = trunc i64 %10 to i32
  %12 = call i64 @strlen(i8* noundef nonnull %6) #5
  %13 = trunc i64 %12 to i32
  %14 = icmp eq i32 %11, %13
  %15 = zext i1 %14 to i32
  br label %16

16:                                               ; preds = %22, %0
  %17 = phi i64 [ %24, %22 ], [ 0, %0 ]
  %18 = phi i32 [ %23, %22 ], [ %15, %0 ]
  %19 = getelementptr inbounds [10086 x i8], [10086 x i8]* %2, i64 0, i64 %17
  %20 = load i8, i8* %19, align 1, !tbaa !5
  switch i8 %20, label %21 [
    i8 0, label %25
    i8 65, label %22
    i8 71, label %22
    i8 67, label %22
    i8 84, label %22
  ]

21:                                               ; preds = %16
  br label %22

22:                                               ; preds = %16, %16, %16, %16, %21
  %23 = phi i32 [ 0, %21 ], [ %18, %16 ], [ %18, %16 ], [ %18, %16 ], [ %18, %16 ]
  %24 = add nuw i64 %17, 1
  br label %16, !llvm.loop !8

25:                                               ; preds = %16, %34
  %26 = phi i64 [ %36, %34 ], [ 0, %16 ]
  %27 = phi i32 [ %35, %34 ], [ %18, %16 ]
  %28 = getelementptr inbounds [10086 x i8], [10086 x i8]* %3, i64 0, i64 %26
  %29 = load i8, i8* %28, align 1, !tbaa !5
  switch i8 %29, label %33 [
    i8 0, label %30
    i8 65, label %34
    i8 71, label %34
    i8 67, label %34
    i8 84, label %34
  ]

30:                                               ; preds = %25
  %31 = load i8, i8* %5, align 16, !tbaa !5
  %32 = icmp eq i8 %31, 0
  br i1 %32, label %52, label %37

33:                                               ; preds = %25
  br label %34

34:                                               ; preds = %25, %25, %25, %25, %33
  %35 = phi i32 [ 0, %33 ], [ %27, %25 ], [ %27, %25 ], [ %27, %25 ], [ %27, %25 ]
  %36 = add nuw i64 %26, 1
  br label %25, !llvm.loop !10

37:                                               ; preds = %30, %37
  %38 = phi i64 [ %48, %37 ], [ 0, %30 ]
  %39 = phi i8 [ %50, %37 ], [ %31, %30 ]
  %40 = phi double [ %47, %37 ], [ 0.000000e+00, %30 ]
  %41 = phi double [ %46, %37 ], [ 0.000000e+00, %30 ]
  %42 = getelementptr inbounds [10086 x i8], [10086 x i8]* %3, i64 0, i64 %38
  %43 = load i8, i8* %42, align 1, !tbaa !5
  %44 = icmp eq i8 %39, %43
  %45 = fadd double %41, 1.000000e+00
  %46 = select i1 %44, double %45, double %41
  %47 = fadd double %40, 1.000000e+00
  %48 = add nuw nsw i64 %38, 1
  %49 = getelementptr inbounds [10086 x i8], [10086 x i8]* %2, i64 0, i64 %48
  %50 = load i8, i8* %49, align 1, !tbaa !5
  %51 = icmp eq i8 %50, 0
  br i1 %51, label %52, label %37, !llvm.loop !11

52:                                               ; preds = %37, %30
  %53 = phi double [ 0.000000e+00, %30 ], [ %46, %37 ]
  %54 = phi double [ 0.000000e+00, %30 ], [ %47, %37 ]
  switch i32 %27, label %63 [
    i32 0, label %60
    i32 1, label %55
  ]

55:                                               ; preds = %52
  %56 = fdiv double %53, %54
  %57 = load double, double* %1, align 8, !tbaa !12
  %58 = fcmp ult double %56, %57
  %59 = select i1 %58, i8* getelementptr inbounds ([3 x i8], [3 x i8]* @.str.4, i64 0, i64 0), i8* getelementptr inbounds ([4 x i8], [4 x i8]* @.str.3, i64 0, i64 0)
  br label %60

60:                                               ; preds = %55, %52
  %61 = phi i8* [ getelementptr inbounds ([6 x i8], [6 x i8]* @.str.2, i64 0, i64 0), %52 ], [ %59, %55 ]
  %62 = call i32 (i8*, ...) @printf(i8* nonnull dereferenceable(1) %61)
  br label %63

63:                                               ; preds = %60, %52
  call void @llvm.lifetime.end.p0i8(i64 10086, i8* nonnull %6) #4
  call void @llvm.lifetime.end.p0i8(i64 10086, i8* nonnull %5) #4
  call void @llvm.lifetime.end.p0i8(i64 8, i8* nonnull %4) #4
  ret i32 0
}

; Function Attrs: argmemonly mustprogress nofree nosync nounwind willreturn
declare void @llvm.lifetime.start.p0i8(i64 immarg, i8* nocapture) #1

; Function Attrs: nofree nounwind
declare noundef i32 @__isoc99_scanf(i8* nocapture noundef readonly, ...) local_unnamed_addr #2

; Function Attrs: argmemonly mustprogress nofree nounwind readonly willreturn
declare i64 @strlen(i8* nocapture) local_unnamed_addr #3

; Function Attrs: nofree nounwind
declare noundef i32 @printf(i8* nocapture noundef readonly, ...) local_unnamed_addr #2

; Function Attrs: argmemonly mustprogress nofree nosync nounwind willreturn
declare void @llvm.lifetime.end.p0i8(i64 immarg, i8* nocapture) #1


!llvm.module.flags = !{!0, !1, !2, !3}
!llvm.ident = !{!4}

!0 = !{i32 1, !"wchar_size", i32 4}
!1 = !{i32 7, !"PIC Level", i32 2}
!2 = !{i32 7, !"PIE Level", i32 2}
!3 = !{i32 7, !"uwtable", i32 1}
!4 = !{!"clang version 13.0.0"}
!5 = !{!6, !6, i64 0}
!6 = !{!"omnipotent char", !7, i64 0}
!7 = !{!"Simple C/C++ TBAA"}
!8 = distinct !{!8, !9}
!9 = !{!"llvm.loop.mustprogress"}
!10 = distinct !{!10, !9}
!11 = distinct !{!11, !9}
!12 = !{!13, !13, i64 0}
!13 = !{!"double", !6, i64 0}
